Certificate:
    Data:
        Version: 3 (0x2)
        Serial Number: 1 (0x1)
        Signature Algorithm: sha256WithRSAEncryption
        Issuer: C=US, ST=AZ, L=Tucson, O=GBCInc, OU=FUNAuto, CN=onlinegbc.com/name=GBCInc/emailAddress=techsupport@onlinegbc.com
        Validity
            Not Before: Nov  8 06:01:13 2019 GMT
            Not After : Nov  5 06:01:13 2029 GMT
        Subject: C=US, ST=AZ, L=Tucson, O=GBCInc, OU=FUNAuto, CN=LinEMR1P/name=GBCInc/emailAddress=techsupport@onlinegbc.com
        Subject Public Key Info:
            Public Key Algorithm: rsaEncryption
                RSA Public-Key: (2048 bit)
                Modulus:
                    00:bb:b0:25:fa:59:88:08:2b:7b:be:74:70:18:c0:
                    7a:11:4f:a3:b7:4e:37:be:bc:20:af:54:53:4c:ac:
                    cf:a8:ed:e1:23:dd:c6:32:e2:6e:e1:72:b3:33:17:
                    71:eb:1e:03:f1:00:bb:e4:23:96:88:2c:c0:d9:ff:
                    72:fe:75:c9:34:d2:aa:0b:da:a9:72:51:ec:ef:77:
                    60:01:b1:58:8d:5e:eb:65:0a:6f:66:0c:f2:46:7f:
                    61:7d:5d:9f:6a:06:8a:1c:9d:44:09:29:9e:b0:52:
                    53:eb:4c:bd:84:e2:ed:61:ef:d0:b6:c6:e3:a9:ca:
                    90:31:7e:fb:f7:49:a3:d9:09:2b:06:14:d1:76:36:
                    d8:e7:3f:d2:17:c0:31:df:24:b5:92:fe:a7:62:14:
                    6e:a4:25:00:6e:7b:ba:63:a0:42:cc:cb:9e:ee:d9:
                    71:47:21:46:63:6a:e9:87:a8:b9:a0:ce:e9:84:c4:
                    c5:6a:1e:c3:ed:48:b3:ba:ac:f0:10:89:e2:06:9b:
                    eb:8d:95:49:db:be:9e:69:ff:1f:59:b2:a6:44:30:
                    27:bd:10:45:d6:61:2b:03:06:39:7c:cd:6f:c1:53:
                    99:fe:56:86:32:dc:7d:05:80:47:e0:ba:d5:6c:3b:
                    d6:4a:a3:66:1a:e4:77:5d:f7:7a:ee:c8:b3:48:1e:
                    c9:c1
                Exponent: 65537 (0x10001)
        X509v3 extensions:
            X509v3 Basic Constraints: 
                CA:FALSE
            Netscape Cert Type: 
                SSL Server
            Netscape Comment: 
                Easy-RSA Generated Server Certificate
            X509v3 Subject Key Identifier: 
                D2:06:48:52:33:A8:FC:61:2A:EA:6F:B7:D0:46:C8:4F:46:44:07:F4
            X509v3 Authority Key Identifier: 
                keyid:74:3C:48:46:A8:EE:E4:70:FC:60:CC:E1:70:B0:7A:70:52:A4:20:7B
                DirName:/C=US/ST=AZ/L=Tucson/O=GBCInc/OU=FUNAuto/CN=onlinegbc.com/name=GBCInc/emailAddress=techsupport@onlinegbc.com
                serial:7D:6B:62:E2:8D:D4:5B:99:2B:EB:48:E8:49:E6:63:41:07:6D:71:C0

            X509v3 Extended Key Usage: 
                TLS Web Server Authentication
            X509v3 Key Usage: 
                Digital Signature, Key Encipherment
            X509v3 Subject Alternative Name: 
                DNS:LinEMR1P
    Signature Algorithm: sha256WithRSAEncryption
         78:84:0a:ca:2b:db:d5:f7:5a:df:40:38:ec:4b:16:36:2b:ac:
         49:05:0a:5b:14:1b:8b:eb:dc:37:52:f1:b1:39:48:9d:44:39:
         0a:4e:18:81:e2:60:e7:c9:b1:0a:6b:96:46:bb:fd:44:03:2c:
         b1:c1:4d:3f:d5:72:49:ad:fc:73:f7:b5:1c:a6:d1:29:82:05:
         48:f8:1a:51:de:b8:5f:5f:41:e3:46:0f:69:bb:7c:e0:11:d4:
         f8:f3:d9:d4:78:b4:b3:5f:ea:66:01:80:2e:b8:28:45:cd:a2:
         42:cd:81:74:4e:86:0c:9f:78:fd:00:e9:ed:52:47:81:3c:f5:
         dc:04:be:2b:0f:e9:15:73:d9:34:33:6e:e3:87:80:33:56:f9:
         9b:82:90:16:3a:06:8c:6f:61:d3:f6:6a:d9:82:11:51:72:ac:
         4e:89:6c:18:b3:03:5c:31:4c:fa:3a:e1:0b:b7:b2:5f:dc:3e:
         d8:8f:14:31:b9:7d:09:c0:72:88:c9:13:5c:25:9c:d7:a4:1b:
         d7:94:56:3a:4c:6c:88:91:72:03:08:e1:1c:5d:4f:3d:ab:b6:
         a0:6c:b0:0a:55:5e:c4:7a:db:ba:c7:06:30:63:0e:16:2e:f3:
         aa:fb:12:fc:b6:50:eb:04:dd:71:05:99:86:4a:30:a1:5a:00:
         5a:40:4c:23
-----BEGIN CERTIFICATE-----
MIIFTjCCBDagAwIBAgIBATANBgkqhkiG9w0BAQsFADCBoTELMAkGA1UEBhMCVVMx
CzAJBgNVBAgTAkFaMQ8wDQYDVQQHEwZUdWNzb24xDzANBgNVBAoTBkdCQ0luYzEQ
MA4GA1UECxMHRlVOQXV0bzEWMBQGA1UEAxMNb25saW5lZ2JjLmNvbTEPMA0GA1UE
KRMGR0JDSW5jMSgwJgYJKoZIhvcNAQkBFhl0ZWNoc3VwcG9ydEBvbmxpbmVnYmMu
Y29tMB4XDTE5MTEwODA2MDExM1oXDTI5MTEwNTA2MDExM1owgZwxCzAJBgNVBAYT
AlVTMQswCQYDVQQIEwJBWjEPMA0GA1UEBxMGVHVjc29uMQ8wDQYDVQQKEwZHQkNJ
bmMxEDAOBgNVBAsTB0ZVTkF1dG8xETAPBgNVBAMTCExpbkVNUjFQMQ8wDQYDVQQp
EwZHQkNJbmMxKDAmBgkqhkiG9w0BCQEWGXRlY2hzdXBwb3J0QG9ubGluZWdiYy5j
b20wggEiMA0GCSqGSIb3DQEBAQUAA4IBDwAwggEKAoIBAQC7sCX6WYgIK3u+dHAY
wHoRT6O3Tje+vCCvVFNMrM+o7eEj3cYy4m7hcrMzF3HrHgPxALvkI5aILMDZ/3L+
dck00qoL2qlyUezvd2ABsViNXutlCm9mDPJGf2F9XZ9qBoocnUQJKZ6wUlPrTL2E
4u1h79C2xuOpypAxfvv3SaPZCSsGFNF2NtjnP9IXwDHfJLWS/qdiFG6kJQBue7pj
oELMy57u2XFHIUZjaumHqLmgzumExMVqHsPtSLO6rPAQieIGm+uNlUnbvp5p/x9Z
sqZEMCe9EEXWYSsDBjl8zW/BU5n+VoYy3H0FgEfgutVsO9ZKo2Ya5Hdd93ruyLNI
HsnBAgMBAAGjggGSMIIBjjAJBgNVHRMEAjAAMBEGCWCGSAGG+EIBAQQEAwIGQDA0
BglghkgBhvhCAQ0EJxYlRWFzeS1SU0EgR2VuZXJhdGVkIFNlcnZlciBDZXJ0aWZp
Y2F0ZTAdBgNVHQ4EFgQU0gZIUjOo/GEq6m+30EbIT0ZEB/QwgeEGA1UdIwSB2TCB
1oAUdDxIRqju5HD8YMzhcLB6cFKkIHuhgaekgaQwgaExCzAJBgNVBAYTAlVTMQsw
CQYDVQQIEwJBWjEPMA0GA1UEBxMGVHVjc29uMQ8wDQYDVQQKEwZHQkNJbmMxEDAO
BgNVBAsTB0ZVTkF1dG8xFjAUBgNVBAMTDW9ubGluZWdiYy5jb20xDzANBgNVBCkT
BkdCQ0luYzEoMCYGCSqGSIb3DQEJARYZdGVjaHN1cHBvcnRAb25saW5lZ2JjLmNv
bYIUfWti4o3UW5kr60joSeZjQQdtccAwEwYDVR0lBAwwCgYIKwYBBQUHAwEwCwYD
VR0PBAQDAgWgMBMGA1UdEQQMMAqCCExpbkVNUjFQMA0GCSqGSIb3DQEBCwUAA4IB
AQB4hArKK9vV91rfQDjsSxY2K6xJBQpbFBuL69w3UvGxOUidRDkKThiB4mDnybEK
a5ZGu/1EAyyxwU0/1XJJrfxz97UcptEpggVI+BpR3rhfX0HjRg9pu3zgEdT489nU
eLSzX+pmAYAuuChFzaJCzYF0ToYMn3j9AOntUkeBPPXcBL4rD+kVc9k0M27jh4Az
VvmbgpAWOgaMb2HT9mrZghFRcqxOiWwYswNcMUz6OuELt7Jf3D7YjxQxuX0JwHKI
yRNcJZzXpBvXlFY6TGyIkXIDCOEcXU89q7agbLAKVV7Eetu6xwYwYw4WLvOq+xL8
tlDrBN1xBZmGSjChWgBaQEwj
-----END CERTIFICATE-----
