Certificate:
    Data:
        Version: 3 (0x2)
        Serial Number: 2 (0x2)
        Signature Algorithm: sha256WithRSAEncryption
        Issuer: C=US, ST=AZ, L=Tucson, O=GBCInc, OU=FUNAuto, CN=onlinegbc.com/name=GBCInc/emailAddress=techsupport@onlinegbc.com
        Validity
            Not Before: Nov  8 06:04:15 2019 GMT
            Not After : Nov  5 06:04:15 2029 GMT
        Subject: C=US, ST=AZ, L=Tucson, O=GBCInc, OU=FUNAuto, CN=client-certificate/name=GBCInc/emailAddress=techsupport@onlinegbc.com
        Subject Public Key Info:
            Public Key Algorithm: rsaEncryption
                RSA Public-Key: (2048 bit)
                Modulus:
                    00:cb:9d:b0:7f:f2:19:3c:45:1f:9c:3b:ee:17:4a:
                    7f:76:53:f0:94:24:97:64:66:ab:ec:76:2e:82:1a:
                    c0:ea:8b:bc:92:32:31:b4:5b:4b:43:73:cc:f9:52:
                    a9:d5:e0:aa:bf:d1:b7:f7:28:18:f3:1d:da:a8:60:
                    d5:a6:36:52:ca:b5:01:98:cf:0a:3c:a1:31:5c:53:
                    54:2a:d0:8f:d6:d4:91:9b:ee:dc:fb:82:a1:66:95:
                    7f:f5:1b:c6:d9:2a:de:dc:42:47:30:6a:d6:41:5e:
                    bc:be:14:ea:5c:6e:48:15:ea:b7:1c:31:83:b4:62:
                    bd:52:b8:4b:80:08:da:dc:48:d1:48:29:6b:81:39:
                    2c:b0:2d:12:8d:6d:49:d8:71:d5:b1:8e:77:8f:f8:
                    5d:64:97:8d:37:a9:7d:82:d5:c8:ae:16:d1:6e:6a:
                    33:84:1f:8e:0a:d3:72:8d:91:15:df:32:d9:52:18:
                    b8:6d:05:03:73:58:52:23:a4:23:78:ed:9a:c7:73:
                    96:ad:18:2c:a6:a6:c2:e1:9c:e8:a2:cf:a7:3d:07:
                    aa:2b:f2:03:a3:09:89:53:ec:7c:84:42:7b:4d:f0:
                    12:0e:33:21:43:80:f4:63:da:3e:9b:95:ae:fa:43:
                    5c:07:d1:1d:5a:81:4e:39:ff:6a:60:6d:83:47:3a:
                    a6:c5
                Exponent: 65537 (0x10001)
        X509v3 extensions:
            X509v3 Basic Constraints: 
                CA:FALSE
            Netscape Comment: 
                Easy-RSA Generated Certificate
            X509v3 Subject Key Identifier: 
                15:33:BE:EC:98:5E:E0:54:B5:3B:1F:CA:E4:41:44:3F:F4:61:42:CD
            X509v3 Authority Key Identifier: 
                keyid:74:3C:48:46:A8:EE:E4:70:FC:60:CC:E1:70:B0:7A:70:52:A4:20:7B
                DirName:/C=US/ST=AZ/L=Tucson/O=GBCInc/OU=FUNAuto/CN=onlinegbc.com/name=GBCInc/emailAddress=techsupport@onlinegbc.com
                serial:7D:6B:62:E2:8D:D4:5B:99:2B:EB:48:E8:49:E6:63:41:07:6D:71:C0

            X509v3 Extended Key Usage: 
                TLS Web Client Authentication
            X509v3 Key Usage: 
                Digital Signature
            X509v3 Subject Alternative Name: 
                DNS:client-certificate
    Signature Algorithm: sha256WithRSAEncryption
         0a:4f:12:a5:35:39:fa:77:a8:3d:38:2a:84:04:92:e7:e7:0d:
         bf:11:52:73:26:08:3d:b2:b0:9d:8c:58:7d:60:b2:01:aa:ec:
         ee:d1:c1:55:6f:f1:3d:a8:f3:87:50:b0:75:c9:eb:58:b5:2f:
         a2:08:0c:c3:83:9f:d5:1a:2f:aa:49:8a:9f:ff:c9:82:e3:75:
         21:9a:c0:dc:95:e7:f2:7f:69:b3:91:b9:22:ac:be:ad:2b:bb:
         2b:1c:a4:12:93:1d:7d:a9:00:51:b7:27:a1:8b:62:b9:a1:1f:
         0b:e7:44:29:8d:37:a2:6e:28:4a:82:ba:7e:a2:87:45:60:56:
         fa:6f:28:1c:0b:33:db:86:39:a0:8a:44:20:2b:04:4d:f1:70:
         6a:c2:15:66:f3:88:5e:bf:1e:6d:38:3c:1e:67:69:a1:cc:34:
         e6:9d:6f:8f:80:92:dc:50:05:f7:d6:0e:49:af:b5:59:d1:fe:
         2a:c1:74:bb:e3:3d:3e:1b:46:69:8b:0e:9e:a8:3b:d6:86:f3:
         b4:c2:5c:91:82:96:78:92:10:c7:7d:81:8a:f9:82:b8:7f:97:
         c3:ba:c2:de:eb:df:56:2d:af:f3:70:f3:14:f9:7c:65:2f:1c:
         3c:73:98:e6:dc:e5:53:b6:cd:47:e5:28:6e:14:df:c2:97:c7:
         de:60:67:d2
-----BEGIN CERTIFICATE-----
MIIFSDCCBDCgAwIBAgIBAjANBgkqhkiG9w0BAQsFADCBoTELMAkGA1UEBhMCVVMx
CzAJBgNVBAgTAkFaMQ8wDQYDVQQHEwZUdWNzb24xDzANBgNVBAoTBkdCQ0luYzEQ
MA4GA1UECxMHRlVOQXV0bzEWMBQGA1UEAxMNb25saW5lZ2JjLmNvbTEPMA0GA1UE
KRMGR0JDSW5jMSgwJgYJKoZIhvcNAQkBFhl0ZWNoc3VwcG9ydEBvbmxpbmVnYmMu
Y29tMB4XDTE5MTEwODA2MDQxNVoXDTI5MTEwNTA2MDQxNVowgaYxCzAJBgNVBAYT
AlVTMQswCQYDVQQIEwJBWjEPMA0GA1UEBxMGVHVjc29uMQ8wDQYDVQQKEwZHQkNJ
bmMxEDAOBgNVBAsTB0ZVTkF1dG8xGzAZBgNVBAMTEmNsaWVudC1jZXJ0aWZpY2F0
ZTEPMA0GA1UEKRMGR0JDSW5jMSgwJgYJKoZIhvcNAQkBFhl0ZWNoc3VwcG9ydEBv
bmxpbmVnYmMuY29tMIIBIjANBgkqhkiG9w0BAQEFAAOCAQ8AMIIBCgKCAQEAy52w
f/IZPEUfnDvuF0p/dlPwlCSXZGar7HYughrA6ou8kjIxtFtLQ3PM+VKp1eCqv9G3
9ygY8x3aqGDVpjZSyrUBmM8KPKExXFNUKtCP1tSRm+7c+4KhZpV/9RvG2Sre3EJH
MGrWQV68vhTqXG5IFeq3HDGDtGK9UrhLgAja3EjRSClrgTkssC0SjW1J2HHVsY53
j/hdZJeNN6l9gtXIrhbRbmozhB+OCtNyjZEV3zLZUhi4bQUDc1hSI6QjeO2ax3OW
rRgspqbC4Zzoos+nPQeqK/IDowmJU+x8hEJ7TfASDjMhQ4D0Y9o+m5Wu+kNcB9Ed
WoFOOf9qYG2DRzqmxQIDAQABo4IBgjCCAX4wCQYDVR0TBAIwADAtBglghkgBhvhC
AQ0EIBYeRWFzeS1SU0EgR2VuZXJhdGVkIENlcnRpZmljYXRlMB0GA1UdDgQWBBQV
M77smF7gVLU7H8rkQUQ/9GFCzTCB4QYDVR0jBIHZMIHWgBR0PEhGqO7kcPxgzOFw
sHpwUqQge6GBp6SBpDCBoTELMAkGA1UEBhMCVVMxCzAJBgNVBAgTAkFaMQ8wDQYD
VQQHEwZUdWNzb24xDzANBgNVBAoTBkdCQ0luYzEQMA4GA1UECxMHRlVOQXV0bzEW
MBQGA1UEAxMNb25saW5lZ2JjLmNvbTEPMA0GA1UEKRMGR0JDSW5jMSgwJgYJKoZI
hvcNAQkBFhl0ZWNoc3VwcG9ydEBvbmxpbmVnYmMuY29tghR9a2LijdRbmSvrSOhJ
5mNBB21xwDATBgNVHSUEDDAKBggrBgEFBQcDAjALBgNVHQ8EBAMCB4AwHQYDVR0R
BBYwFIISY2xpZW50LWNlcnRpZmljYXRlMA0GCSqGSIb3DQEBCwUAA4IBAQAKTxKl
NTn6d6g9OCqEBJLn5w2/EVJzJgg9srCdjFh9YLIBquzu0cFVb/E9qPOHULB1yetY
tS+iCAzDg5/VGi+qSYqf/8mC43UhmsDclefyf2mzkbkirL6tK7srHKQSkx19qQBR
tyehi2K5oR8L50QpjTeibihKgrp+oodFYFb6bygcCzPbhjmgikQgKwRN8XBqwhVm
84hevx5tODweZ2mhzDTmnW+PgJLcUAX31g5Jr7VZ0f4qwXS74z0+G0Zpiw6eqDvW
hvO0wlyRgpZ4khDHfYGK+YK4f5fDusLe699WLa/zcPMU+XxlLxw8c5jm3OVTts1H
5ShuFN/Cl8feYGfS
-----END CERTIFICATE-----
